target datalayout = "e-m:e-p270:32:32-p271:32:32-p272:64:64-i64:64-i128:128-f80:128-n8:16:32:64-S128"
target triple = "x86_64-pc-linux-gnu"

%class.RadianceScalingRendererPlugin = type { %class.QObject, %class.RenderPlugin.base, i8, %class.QList, ptr, ptr, ptr, ptr, ptr, ptr, ptr, ptr, ptr, ptr, i32, i32, %class.MeshLabPlugin, %class.MeshLabPluginLogger }
%class.QObject = type { ptr, %class.QScopedPointer }
%class.QScopedPointer = type { ptr }
%class.RenderPlugin.base = type { ptr }
%class.QList = type { %union.anon }
%union.anon = type { %struct.QListData }
%struct.QListData = type { ptr }
%class.MeshLabPlugin = type { ptr, i8, %class.QFileInfo }
%class.QFileInfo = type { %class.QSharedDataPointer }
%class.QSharedDataPointer = type { ptr }
%class.MeshLabPluginLogger = type { ptr, ptr }
%class.TextureFormat = type { i32, i32, i32, i32, i32, i32, i32, i32, i32, i32 }
%class.TextureParams = type { i32, i32, i32, i32, i32, i32 }
%class.Texture2D = type { i32, %class.TextureFormat, %class.TextureParams }
%class.Texture2D.199 = type { i32, %class.TextureFormat, %class.TextureParams }

; Function Attrs: mustprogress nounwind uwtable
define linkonce_odr void @_ZN13TextureParamsD2Ev(ptr noundef nonnull align 4 dereferenceable(24) %0) unnamed_addr #4 comdat align 2 {
  %2 = alloca ptr, align 8
  store ptr %0, ptr %2, align 8
  ret void
}

; Function Attrs: mustprogress nounwind uwtable
define linkonce_odr void @_ZN9Texture2DIhED2Ev(ptr noundef nonnull align 4 dereferenceable(68) %0) unnamed_addr #4 comdat align 2 personality ptr @__gxx_personality_v0 {
  %2 = alloca ptr, align 8
  store ptr %0, ptr %2, align 8
  %3 = load ptr, ptr %2, align 8
  %4 = getelementptr inbounds %class.Texture2D, ptr %3, i32 0, i32 0
  invoke void @glDeleteTextures(i32 noundef 1, ptr noundef %4)
          to label %5 unwind label %7

5:                                                ; preds = %1
  %6 = getelementptr inbounds %class.Texture2D, ptr %3, i32 0, i32 2
  call void @_ZN13TextureParamsD2Ev(ptr noundef nonnull align 4 dereferenceable(24) %6) #3
  ret void

7:                                                ; preds = %1
  %8 = landingpad { ptr, i32 }
          catch ptr null
  %9 = extractvalue { ptr, i32 } %8, 0
  call void @__clang_call_terminate(ptr %9) #13
  unreachable
}

; Function Attrs: mustprogress nounwind uwtable
define linkonce_odr void @_ZN9Texture2DIfED2Ev(ptr noundef nonnull align 4 dereferenceable(68) %0) unnamed_addr #4 comdat align 2 personality ptr @__gxx_personality_v0 {
  %2 = alloca ptr, align 8
  store ptr %0, ptr %2, align 8
  %3 = load ptr, ptr %2, align 8
  %4 = getelementptr inbounds %class.Texture2D.199, ptr %3, i32 0, i32 0
  invoke void @glDeleteTextures(i32 noundef 1, ptr noundef %4)
          to label %5 unwind label %7

5:                                                ; preds = %1
  %6 = getelementptr inbounds %class.Texture2D.199, ptr %3, i32 0, i32 2
  call void @_ZN13TextureParamsD2Ev(ptr noundef nonnull align 4 dereferenceable(24) %6) #3
  ret void

7:                                                ; preds = %1
  %8 = landingpad { ptr, i32 }
          catch ptr null
  %9 = extractvalue { ptr, i32 } %8, 0
  call void @__clang_call_terminate(ptr %9) #13
  unreachable
}

; Function Attrs: mustprogress nounwind uwtable
define void @_ZN29RadianceScalingRendererPlugin9cleanFBOsEv(ptr noundef nonnull align 8 dereferenceable(128) %0) #4 align 2 {
  %2 = alloca ptr, align 8
  store ptr %0, ptr %2, align 8
  %3 = load ptr, ptr %2, align 8
  %4 = getelementptr inbounds %class.RadianceScalingRendererPlugin, ptr %3, i32 0, i32 5
  %5 = load ptr, ptr %4, align 8
  %6 = icmp ne ptr %5, null
  br i1 %6, label %7, label %38

7:                                                ; preds = %1
  %8 = getelementptr inbounds %class.RadianceScalingRendererPlugin, ptr %3, i32 0, i32 5
  %9 = load ptr, ptr %8, align 8
  %10 = icmp eq ptr %9, null
  br i1 %10, label %12, label %11

11:                                               ; preds = %7
  call void @_ZN17FramebufferObjectD1Ev(ptr noundef nonnull align 4 dereferenceable(8) %9) #3
  call void @_ZdlPv(ptr noundef %9) #16
  br label %12

12:                                               ; preds = %11, %7
  %13 = getelementptr inbounds %class.RadianceScalingRendererPlugin, ptr %3, i32 0, i32 8
  %14 = load ptr, ptr %13, align 8
  %15 = icmp eq ptr %14, null
  br i1 %15, label %17, label %16

16:                                               ; preds = %12
  call void @_ZN9Texture2DIfED2Ev(ptr noundef nonnull align 4 dereferenceable(68) %14) #3
  call void @_ZdlPv(ptr noundef %14) #16
  br label %17

17:                                               ; preds = %16, %12
  %18 = getelementptr inbounds %class.RadianceScalingRendererPlugin, ptr %3, i32 0, i32 9
  %19 = load ptr, ptr %18, align 8
  %20 = icmp eq ptr %19, null
  br i1 %20, label %22, label %21

21:                                               ; preds = %17
  call void @_ZN9Texture2DIfED2Ev(ptr noundef nonnull align 4 dereferenceable(68) %19) #3
  call void @_ZdlPv(ptr noundef %19) #16
  br label %22

22:                                               ; preds = %21, %17
  %23 = getelementptr inbounds %class.RadianceScalingRendererPlugin, ptr %3, i32 0, i32 10
  %24 = load ptr, ptr %23, align 8
  %25 = icmp eq ptr %24, null
  br i1 %25, label %27, label %26

26:                                               ; preds = %22
  call void @_ZN9Texture2DIfED2Ev(ptr noundef nonnull align 4 dereferenceable(68) %24) #3
  call void @_ZdlPv(ptr noundef %24) #16
  br label %27

27:                                               ; preds = %26, %22
  %28 = getelementptr inbounds %class.RadianceScalingRendererPlugin, ptr %3, i32 0, i32 11
  %29 = load ptr, ptr %28, align 8
  %30 = icmp eq ptr %29, null
  br i1 %30, label %32, label %31

31:                                               ; preds = %27
  call void @_ZN9Texture2DIhED2Ev(ptr noundef nonnull align 4 dereferenceable(68) %29) #3
  call void @_ZdlPv(ptr noundef %29) #16
  br label %32

32:                                               ; preds = %31, %27
  %33 = getelementptr inbounds %class.RadianceScalingRendererPlugin, ptr %3, i32 0, i32 5
  store ptr null, ptr %33, align 8
  %34 = getelementptr inbounds %class.RadianceScalingRendererPlugin, ptr %3, i32 0, i32 8
  store ptr null, ptr %34, align 8
  %35 = getelementptr inbounds %class.RadianceScalingRendererPlugin, ptr %3, i32 0, i32 9
  store ptr null, ptr %35, align 8
  %36 = getelementptr inbounds %class.RadianceScalingRendererPlugin, ptr %3, i32 0, i32 10
  store ptr null, ptr %36, align 8
  %37 = getelementptr inbounds %class.RadianceScalingRendererPlugin, ptr %3, i32 0, i32 11
  store ptr null, ptr %37, align 8
  br label %38

38:                                               ; preds = %32, %1
  ret void
}