; Function Attrs: mustprogress nounwind uwtable
define void @_ZN29RadianceScalingRendererPlugin9cleanFBOsEv(ptr nocapture noundef nonnull align 8 dereferenceable(128) %0) local_unnamed_addr #4 align 2 personality ptr @__gxx_personality_v0 {
  %2 = getelementptr inbounds i8, ptr %0, i64 48
  %3 = load ptr, ptr %2, align 8
  %.not = icmp eq ptr %3, null
  br i1 %.not, label %37, label %4

4:                                                ; preds = %1
  tail call void @_ZN17FramebufferObjectD1Ev(ptr noundef nonnull align 4 dereferenceable(8) %3) #17
  tail call void @_ZdlPv(ptr noundef nonnull %3) #16
  %5 = getelementptr inbounds i8, ptr %0, i64 72
  %6 = load ptr, ptr %5, align 8
  %7 = icmp eq ptr %6, null
  br i1 %7, label %12, label %8

8:                                                ; preds = %4
  invoke void @glDeleteTextures(i32 noundef 1, ptr noundef nonnull %6)
          to label %_ZN9Texture2DIfED2Ev.exit unwind label %9

9:                                                ; preds = %8
  %10 = landingpad { ptr, i32 }
          catch ptr null
  %11 = extractvalue { ptr, i32 } %10, 0
  tail call void @__clang_call_terminate(ptr %11) #18
  unreachable

_ZN9Texture2DIfED2Ev.exit:                        ; preds = %8
  tail call void @_ZdlPv(ptr noundef nonnull %6) #16
  br label %12

12:                                               ; preds = %_ZN9Texture2DIfED2Ev.exit, %4
  %13 = getelementptr inbounds i8, ptr %0, i64 80
  %14 = load ptr, ptr %13, align 8
  %15 = icmp eq ptr %14, null
  br i1 %15, label %20, label %16

16:                                               ; preds = %12
  invoke void @glDeleteTextures(i32 noundef 1, ptr noundef nonnull %14)
          to label %_ZN9Texture2DIfED2Ev.exit5 unwind label %17

17:                                               ; preds = %16
  %18 = landingpad { ptr, i32 }
          catch ptr null
  %19 = extractvalue { ptr, i32 } %18, 0
  tail call void @__clang_call_terminate(ptr %19) #18
  unreachable

_ZN9Texture2DIfED2Ev.exit5:                       ; preds = %16
  tail call void @_ZdlPv(ptr noundef nonnull %14) #16
  br label %20

20:                                               ; preds = %_ZN9Texture2DIfED2Ev.exit5, %12
  %21 = getelementptr inbounds i8, ptr %0, i64 88
  %22 = load ptr, ptr %21, align 8
  %23 = icmp eq ptr %22, null
  br i1 %23, label %28, label %24

24:                                               ; preds = %20
  invoke void @glDeleteTextures(i32 noundef 1, ptr noundef nonnull %22)
          to label %_ZN9Texture2DIfED2Ev.exit6 unwind label %25

25:                                               ; preds = %24
  %26 = landingpad { ptr, i32 }
          catch ptr null
  %27 = extractvalue { ptr, i32 } %26, 0
  tail call void @__clang_call_terminate(ptr %27) #18
  unreachable

_ZN9Texture2DIfED2Ev.exit6:                       ; preds = %24
  tail call void @_ZdlPv(ptr noundef nonnull %22) #16
  br label %28

28:                                               ; preds = %_ZN9Texture2DIfED2Ev.exit6, %20
  %29 = getelementptr inbounds i8, ptr %0, i64 96
  %30 = load ptr, ptr %29, align 8
  %31 = icmp eq ptr %30, null
  br i1 %31, label %36, label %32

32:                                               ; preds = %28
  invoke void @glDeleteTextures(i32 noundef 1, ptr noundef nonnull %30)
          to label %_ZN9Texture2DIhED2Ev.exit unwind label %33

33:                                               ; preds = %32
  %34 = landingpad { ptr, i32 }
          catch ptr null
  %35 = extractvalue { ptr, i32 } %34, 0
  tail call void @__clang_call_terminate(ptr %35) #18
  unreachable

_ZN9Texture2DIhED2Ev.exit:                        ; preds = %32
  tail call void @_ZdlPv(ptr noundef nonnull %30) #16
  br label %36

36:                                               ; preds = %_ZN9Texture2DIhED2Ev.exit, %28
  store ptr null, ptr %2, align 8
  tail call void @llvm.memset.p0.i64(ptr noundef nonnull align 8 dereferenceable(32) %5, i8 0, i64 32, i1 false)
  br label %37

37:                                               ; preds = %36, %1
  ret void
}